target datalayout = "e-m:e-p270:32:32-p271:32:32-p272:64:64-i64:64-i128:128-f80:128-n8:16:32:64-S128"
target triple = "x86_64-pc-linux-gnu"

%struct._psqlSettings = type { ptr, i32, ptr, i8, ptr, ptr, %struct.printQueryOpt, ptr, ptr, ptr, i8, i8, i32, i32, ptr, ptr, i8, [4 x ptr], i8, i32, ptr, i8, i32, ptr, ptr, i64, i64, i8, ptr, ptr, ptr, i8, i8, i8, i8, i8, i8, i8, i32, i32, i32, i32, i32, i32, i32, i32, ptr, ptr, ptr, i32, i8, i32 }
%struct.printQueryOpt = type { %struct.printTableOpt, ptr, ptr, ptr, i8, ptr, i32 }
%struct.printTableOpt = type { i32, i16, i32, i32, i16, i16, i32, i8, i8, i8, i8, i64, ptr, %struct.separator, %struct.separator, [2 x i8], i8, ptr, i32, i32, i32, i32, i32, i32 }
%struct.separator = type { ptr, i8 }

@pset = external global %struct._psqlSettings, align 8
@completion_charpp = internal global ptr null, align 8
@completion_case_sensitive = internal global i8 0, align 1
@complete_from_list.string_length = internal global i32 0, align 4
@complete_from_list.list_index = internal global i32 0, align 4
@complete_from_list.matches = internal global i32 0, align 4
@complete_from_list.casesensitive = internal global i8 0, align 1

; Function Attrs: nounwind uwtable
define internal ptr @pg_strdup_keyword_case(ptr noundef %0, ptr noundef %1) #0 {
  %3 = alloca ptr, align 8
  %4 = alloca ptr, align 8
  %5 = alloca ptr, align 8
  %6 = alloca ptr, align 8
  %7 = alloca i8, align 1
  store ptr %0, ptr %3, align 8
  store ptr %1, ptr %4, align 8
  call void @llvm.lifetime.start.p0(i64 8, ptr %5) #8
  call void @llvm.lifetime.start.p0(i64 8, ptr %6) #8
  call void @llvm.lifetime.start.p0(i64 1, ptr %7) #8
  %8 = load ptr, ptr %4, align 8
  %9 = getelementptr inbounds i8, ptr %8, i64 0
  %10 = load i8, ptr %9, align 1
  store i8 %10, ptr %7, align 1
  %11 = load ptr, ptr %3, align 8
  %12 = call ptr @pg_strdup(ptr noundef %11)
  store ptr %12, ptr %5, align 8
  %13 = load i32, ptr getelementptr inbounds nuw (%struct._psqlSettings, ptr @pset, i32 0, i32 44), align 8
  %14 = icmp eq i32 %13, 3
  br i1 %14, label %46, label %15

15:                                               ; preds = %2
  %16 = load i32, ptr getelementptr inbounds nuw (%struct._psqlSettings, ptr @pset, i32 0, i32 44), align 8
  %17 = icmp eq i32 %16, 1
  br i1 %17, label %21, label %18

18:                                               ; preds = %15
  %19 = load i32, ptr getelementptr inbounds nuw (%struct._psqlSettings, ptr @pset, i32 0, i32 44), align 8
  %20 = icmp eq i32 %19, 0
  br i1 %20, label %21, label %32

21:                                               ; preds = %18, %15
  %22 = call ptr @__ctype_b_loc() #10
  %23 = load ptr, ptr %22, align 8
  %24 = load i8, ptr %7, align 1
  %25 = zext i8 %24 to i32
  %26 = sext i32 %25 to i64
  %27 = getelementptr inbounds i16, ptr %23, i64 %26
  %28 = load i16, ptr %27, align 2
  %29 = zext i16 %28 to i32
  %30 = and i32 %29, 512
  %31 = icmp ne i32 %30, 0
  br i1 %31, label %46, label %32

32:                                               ; preds = %21, %18
  %33 = load i32, ptr getelementptr inbounds nuw (%struct._psqlSettings, ptr @pset, i32 0, i32 44), align 8
  %34 = icmp eq i32 %33, 1
  br i1 %34, label %35, label %61

35:                                               ; preds = %32
  %36 = call ptr @__ctype_b_loc() #10
  %37 = load ptr, ptr %36, align 8
  %38 = load i8, ptr %7, align 1
  %39 = zext i8 %38 to i32
  %40 = sext i32 %39 to i64
  %41 = getelementptr inbounds i16, ptr %37, i64 %40
  %42 = load i16, ptr %41, align 2
  %43 = zext i16 %42 to i32
  %44 = and i32 %43, 1024
  %45 = icmp ne i32 %44, 0
  br i1 %45, label %61, label %46

46:                                               ; preds = %35, %21, %2
  %47 = load ptr, ptr %5, align 8
  store ptr %47, ptr %6, align 8
  br label %48

48:                                               ; preds = %57, %46
  %49 = load ptr, ptr %6, align 8
  %50 = load i8, ptr %49, align 1
  %51 = icmp ne i8 %50, 0
  br i1 %51, label %52, label %60

52:                                               ; preds = %48
  %53 = load ptr, ptr %6, align 8
  %54 = load i8, ptr %53, align 1
  %55 = call zeroext i8 @pg_tolower(i8 noundef zeroext %54)
  %56 = load ptr, ptr %6, align 8
  store i8 %55, ptr %56, align 1
  br label %57

57:                                               ; preds = %52
  %58 = load ptr, ptr %6, align 8
  %59 = getelementptr inbounds nuw i8, ptr %58, i32 1
  store ptr %59, ptr %6, align 8
  br label %48, !llvm.loop !22

60:                                               ; preds = %48
  br label %76

61:                                               ; preds = %35, %32
  %62 = load ptr, ptr %5, align 8
  store ptr %62, ptr %6, align 8
  br label %63

63:                                               ; preds = %72, %61
  %64 = load ptr, ptr %6, align 8
  %65 = load i8, ptr %64, align 1
  %66 = icmp ne i8 %65, 0
  br i1 %66, label %67, label %75

67:                                               ; preds = %63
  %68 = load ptr, ptr %6, align 8
  %69 = load i8, ptr %68, align 1
  %70 = call zeroext i8 @pg_toupper(i8 noundef zeroext %69)
  %71 = load ptr, ptr %6, align 8
  store i8 %70, ptr %71, align 1
  br label %72

72:                                               ; preds = %67
  %73 = load ptr, ptr %6, align 8
  %74 = getelementptr inbounds nuw i8, ptr %73, i32 1
  store ptr %74, ptr %6, align 8
  br label %63, !llvm.loop !23

75:                                               ; preds = %63
  br label %76

76:                                               ; preds = %75, %60
  %77 = load ptr, ptr %5, align 8
  call void @llvm.lifetime.end.p0(i64 1, ptr %7) #8
  call void @llvm.lifetime.end.p0(i64 8, ptr %6) #8
  call void @llvm.lifetime.end.p0(i64 8, ptr %5) #8
  ret ptr %77
}

; Function Attrs: nounwind uwtable
define internal ptr @complete_from_list(ptr noundef %0, i32 noundef %1) #0 {
  %3 = alloca ptr, align 8
  %4 = alloca ptr, align 8
  %5 = alloca i32, align 4
  %6 = alloca ptr, align 8
  %7 = alloca i32, align 4
  store ptr %0, ptr %4, align 8
  store i32 %1, ptr %5, align 4
  call void @llvm.lifetime.start.p0(i64 8, ptr %6) #8
  %8 = load i32, ptr %5, align 4
  %9 = icmp eq i32 %8, 0
  br i1 %9, label %10, label %17

10:                                               ; preds = %2
  store i32 0, ptr @complete_from_list.list_index, align 4
  %11 = load ptr, ptr %4, align 8
  %12 = call i64 @strlen(ptr noundef %11) #9
  %13 = trunc i64 %12 to i32
  store i32 %13, ptr @complete_from_list.string_length, align 4
  %14 = load i8, ptr @completion_case_sensitive, align 1, !range !6, !noundef !7
  %15 = trunc i8 %14 to i1
  %16 = zext i1 %15 to i8
  store i8 %16, ptr @complete_from_list.casesensitive, align 1
  store i32 0, ptr @complete_from_list.matches, align 4
  br label %17

17:                                               ; preds = %10, %2
  br label %18

18:                                               ; preds = %61, %17
  %19 = load ptr, ptr @completion_charpp, align 8
  %20 = load i32, ptr @complete_from_list.list_index, align 4
  %21 = add i32 %20, 1
  store i32 %21, ptr @complete_from_list.list_index, align 4
  %22 = sext i32 %20 to i64
  %23 = getelementptr inbounds ptr, ptr %19, i64 %22
  %24 = load ptr, ptr %23, align 8
  store ptr %24, ptr %6, align 8
  %25 = icmp ne ptr %24, null
  br i1 %25, label %26, label %62

26:                                               ; preds = %18
  %27 = load i8, ptr @complete_from_list.casesensitive, align 1, !range !6, !noundef !7
  %28 = trunc i8 %27 to i1
  br i1 %28, label %29, label %41

29:                                               ; preds = %26
  %30 = load ptr, ptr %4, align 8
  %31 = load ptr, ptr %6, align 8
  %32 = load i32, ptr @complete_from_list.string_length, align 4
  %33 = sext i32 %32 to i64
  %34 = call i32 @strncmp(ptr noundef %30, ptr noundef %31, i64 noundef %33) #9
  %35 = icmp eq i32 %34, 0
  br i1 %35, label %36, label %41

36:                                               ; preds = %29
  %37 = load i32, ptr @complete_from_list.matches, align 4
  %38 = add i32 %37, 1
  store i32 %38, ptr @complete_from_list.matches, align 4
  %39 = load ptr, ptr %6, align 8
  %40 = call ptr @pg_strdup(ptr noundef %39)
  store ptr %40, ptr %3, align 8
  store i32 1, ptr %7, align 4
  br label %75

41:                                               ; preds = %29, %26
  %42 = load i8, ptr @complete_from_list.casesensitive, align 1, !range !6, !noundef !7
  %43 = trunc i8 %42 to i1
  br i1 %43, label %61, label %44

44:                                               ; preds = %41
  %45 = load ptr, ptr %4, align 8
  %46 = load ptr, ptr %6, align 8
  %47 = load i32, ptr @complete_from_list.string_length, align 4
  %48 = sext i32 %47 to i64
  %49 = call i32 @pg_strncasecmp(ptr noundef %45, ptr noundef %46, i64 noundef %48)
  %50 = icmp eq i32 %49, 0
  br i1 %50, label %51, label %61

51:                                               ; preds = %44
  %52 = load i8, ptr @completion_case_sensitive, align 1, !range !6, !noundef !7
  %53 = trunc i8 %52 to i1
  br i1 %53, label %54, label %57

54:                                               ; preds = %51
  %55 = load ptr, ptr %6, align 8
  %56 = call ptr @pg_strdup(ptr noundef %55)
  store ptr %56, ptr %3, align 8
  store i32 1, ptr %7, align 4
  br label %75

57:                                               ; preds = %51
  %58 = load ptr, ptr %6, align 8
  %59 = load ptr, ptr %4, align 8
  %60 = call ptr @pg_strdup_keyword_case(ptr noundef %58, ptr noundef %59)
  store ptr %60, ptr %3, align 8
  store i32 1, ptr %7, align 4
  br label %75

61:                                               ; preds = %44, %41
  br label %18, !llvm.loop !14

62:                                               ; preds = %18
  %63 = load i8, ptr @complete_from_list.casesensitive, align 1, !range !6, !noundef !7
  %64 = trunc i8 %63 to i1
  br i1 %64, label %65, label %74

65:                                               ; preds = %62
  %66 = load i32, ptr @complete_from_list.matches, align 4
  %67 = icmp eq i32 %66, 0
  br i1 %67, label %68, label %74

68:                                               ; preds = %65
  store i8 0, ptr @complete_from_list.casesensitive, align 1
  store i32 0, ptr @complete_from_list.list_index, align 4
  %69 = load i32, ptr %5, align 4
  %70 = add i32 %69, 1
  store i32 %70, ptr %5, align 4
  %71 = load ptr, ptr %4, align 8
  %72 = load i32, ptr %5, align 4
  %73 = call ptr @complete_from_list(ptr noundef %71, i32 noundef %72)
  store ptr %73, ptr %3, align 8
  store i32 1, ptr %7, align 4
  br label %75

74:                                               ; preds = %65, %62
  store ptr null, ptr %3, align 8
  store i32 1, ptr %7, align 4
  br label %75

75:                                               ; preds = %74, %68, %57, %54, %36
  call void @llvm.lifetime.end.p0(i64 8, ptr %6) #8
  %76 = load ptr, ptr %3, align 8
  ret ptr %76
}